Certificate:
    Data:
        Version: 3 (0x2)
        Serial Number: 4096 (0x1000)
    Signature Algorithm: sha256WithRSAEncryption
        Issuer: C=US, ST=California, L=Menlo Park, O=ONF, OU=Testing Only, CN=CORD Test Root CA
        Validity
            Not Before: Jan  4 14:48:16 2021 GMT
            Not After : Jan  5 14:48:16 2022 GMT
        Subject: C=US, ST=California, L=Menlo Park, O=ONF, OU=Testing Only, CN=xos-core
        Subject Public Key Info:
            Public Key Algorithm: rsaEncryption
                Public-Key: (2048 bit)
                Modulus:
                    00:cd:55:94:08:20:f1:15:ec:67:3a:e7:4b:84:5e:
                    d2:c9:a1:44:cf:03:be:9a:f1:0c:d1:59:50:bd:32:
                    7a:62:89:e8:eb:7d:7b:90:4a:0b:17:87:9e:e4:a0:
                    15:6a:8e:14:94:e3:13:43:bd:dc:c7:02:13:ea:59:
                    a5:82:83:54:6a:34:b1:03:2e:04:ea:79:20:a2:ac:
                    68:40:89:4a:a0:0d:26:61:1b:e5:95:69:1f:e3:61:
                    7e:48:e1:1c:88:72:c2:d8:2d:be:6d:a8:4a:f4:23:
                    a2:a7:59:2b:5c:ae:d9:0f:42:61:32:ef:50:75:ea:
                    e4:11:ff:64:bc:b1:33:b8:52:7a:d9:32:ca:11:74:
                    88:20:ff:eb:88:9e:4b:0a:a1:a8:49:24:26:90:b9:
                    af:f8:61:4e:a1:62:18:68:55:64:31:38:fc:ac:58:
                    17:80:9e:c2:f3:c9:d6:b3:72:8a:25:61:68:78:50:
                    f4:89:fc:5a:aa:e4:dd:83:e1:2e:59:62:71:73:49:
                    f3:2b:9b:4d:3e:c1:45:6c:61:0e:c4:b0:e5:e0:b6:
                    73:b2:a4:82:85:68:5c:ab:7d:67:fe:79:b6:c3:d2:
                    50:2a:59:60:27:2a:ee:71:2f:68:8f:42:29:0a:44:
                    44:9d:12:99:de:74:f9:3e:b9:a2:b9:dc:29:1e:d2:
                    60:71
                Exponent: 65537 (0x10001)
        X509v3 extensions:
            X509v3 Subject Key Identifier: 
                A3:1C:92:59:36:D6:96:2B:18:CB:EE:41:84:E8:1F:D7:16:25:48:A6
            X509v3 Authority Key Identifier: 
                keyid:C9:7C:6C:8B:07:F4:30:F4:56:79:58:C4:58:ED:35:4D:1B:A6:67:E4
                DirName:/C=US/ST=California/L=Menlo Park/O=ONF/OU=Testing Only/CN=CORD Test Root CA
                serial:CE:17:65:BD:6A:C2:3D:4B

            X509v3 Basic Constraints: 
                CA:FALSE
            X509v3 Key Usage: critical
                Digital Signature, Key Encipherment
            X509v3 Extended Key Usage: 
                TLS Web Server Authentication
            X509v3 Subject Alternative Name: 
                DNS:xos-core, DNS:xos-core.default, DNS:xos-core.default.svc.cluster.local
    Signature Algorithm: sha256WithRSAEncryption
         33:36:82:20:04:21:9e:b0:92:8c:9b:16:89:09:48:d0:0f:9d:
         14:54:cc:6c:75:ec:d1:d2:04:d8:46:94:0e:51:6c:3a:af:bc:
         cb:4e:61:6e:c6:de:56:82:6f:4a:d4:52:9f:c8:9a:f8:de:61:
         a9:68:2e:c1:80:73:48:5b:5e:f7:6e:88:44:4d:a9:57:10:18:
         84:73:e2:23:22:41:6a:ff:8c:29:e3:e4:29:7c:41:a4:9a:4e:
         3b:03:76:da:a4:dc:47:0c:14:c8:c5:62:95:35:d3:9d:0a:49:
         82:14:f7:39:a2:7d:cc:64:6f:a5:c1:5b:99:0f:19:a6:ec:25:
         50:bc:99:63:31:5c:09:69:58:cc:86:5d:bc:0e:ba:c5:24:66:
         37:9b:9b:00:e9:2b:04:22:d7:0a:a1:c0:b2:d3:bb:0a:39:ce:
         8c:8f:f4:b2:04:e1:07:88:23:05:0f:49:56:a3:24:aa:30:8a:
         cd:dd:22:a3:2d:24:ef:c3:b6:8e:67:3f:2f:63:2e:0d:04:a8:
         c9:da:2c:25:62:9d:4f:9a:e4:84:33:71:3e:2d:c8:9d:e5:35:
         63:19:f3:27:77:23:c3:a6:67:0d:08:5b:5c:f0:9f:c9:c0:15:
         0d:ac:ae:0f:e5:17:16:58:8d:1c:01:87:98:0e:db:c3:b9:73:
         b8:6d:68:4e
-----BEGIN CERTIFICATE-----
MIIEsDCCA5igAwIBAgICEAAwDQYJKoZIhvcNAQELBQAweDELMAkGA1UEBhMCVVMx
EzARBgNVBAgMCkNhbGlmb3JuaWExEzARBgNVBAcMCk1lbmxvIFBhcmsxDDAKBgNV
BAoMA09ORjEVMBMGA1UECwwMVGVzdGluZyBPbmx5MRowGAYDVQQDDBFDT1JEIFRl
c3QgUm9vdCBDQTAeFw0yMTAxMDQxNDQ4MTZaFw0yMjAxMDUxNDQ4MTZaMG8xCzAJ
BgNVBAYTAlVTMRMwEQYDVQQIDApDYWxpZm9ybmlhMRMwEQYDVQQHDApNZW5sbyBQ
YXJrMQwwCgYDVQQKDANPTkYxFTATBgNVBAsMDFRlc3RpbmcgT25seTERMA8GA1UE
AwwIeG9zLWNvcmUwggEiMA0GCSqGSIb3DQEBAQUAA4IBDwAwggEKAoIBAQDNVZQI
IPEV7Gc650uEXtLJoUTPA76a8QzRWVC9MnpiiejrfXuQSgsXh57koBVqjhSU4xND
vdzHAhPqWaWCg1RqNLEDLgTqeSCirGhAiUqgDSZhG+WVaR/jYX5I4RyIcsLYLb5t
qEr0I6KnWStcrtkPQmEy71B16uQR/2S8sTO4UnrZMsoRdIgg/+uInksKoahJJCaQ
ua/4YU6hYhhoVWQxOPysWBeAnsLzydazcoolYWh4UPSJ/Fqq5N2D4S5ZYnFzSfMr
m00+wUVsYQ7EsOXgtnOypIKFaFyrfWf+ebbD0lAqWWAnKu5xL2iPQikKRESdEpne
dPk+uaK53Cke0mBxAgMBAAGjggFLMIIBRzAdBgNVHQ4EFgQUoxySWTbWlisYy+5B
hOgf1xYlSKYwgaoGA1UdIwSBojCBn4AUyXxsiwf0MPRWeVjEWO01TRumZ+ShfKR6
MHgxCzAJBgNVBAYTAlVTMRMwEQYDVQQIDApDYWxpZm9ybmlhMRMwEQYDVQQHDApN
ZW5sbyBQYXJrMQwwCgYDVQQKDANPTkYxFTATBgNVBAsMDFRlc3RpbmcgT25seTEa
MBgGA1UEAwwRQ09SRCBUZXN0IFJvb3QgQ0GCCQDOF2W9asI9SzAJBgNVHRMEAjAA
MA4GA1UdDwEB/wQEAwIFoDATBgNVHSUEDDAKBggrBgEFBQcDATBJBgNVHREEQjBA
ggh4b3MtY29yZYIQeG9zLWNvcmUuZGVmYXVsdIIieG9zLWNvcmUuZGVmYXVsdC5z
dmMuY2x1c3Rlci5sb2NhbDANBgkqhkiG9w0BAQsFAAOCAQEAMzaCIAQhnrCSjJsW
iQlI0A+dFFTMbHXs0dIE2EaUDlFsOq+8y05hbsbeVoJvStRSn8ia+N5hqWguwYBz
SFte926IRE2pVxAYhHPiIyJBav+MKePkKXxBpJpOOwN22qTcRwwUyMVilTXTnQpJ
ghT3OaJ9zGRvpcFbmQ8ZpuwlULyZYzFcCWlYzIZdvA66xSRmN5ubAOkrBCLXCqHA
stO7CjnOjI/0sgThB4gjBQ9JVqMkqjCKzd0ioy0k78O2jmc/L2MuDQSoydosJWKd
T5rkhDNxPi3IneU1YxnzJ3cjw6ZnDQhbXPCfycAVDayuD+UXFliNHAGHmA7bw7lz
uG1oTg==
-----END CERTIFICATE-----
