Certificate:
    Data:
        Version: 3 (0x2)
        Serial Number: 4096 (0x1000)
    Signature Algorithm: sha256WithRSAEncryption
        Issuer: C=US, ST=California, L=Menlo Park, O=ONF, OU=Testing Only, CN=CORD Test Root CA
        Validity
            Not Before: Dec 16 20:14:08 2019 GMT
            Not After : Dec 16 20:14:08 2020 GMT
        Subject: C=US, ST=California, L=Menlo Park, O=ONF, OU=Testing Only, CN=xos-core
        Subject Public Key Info:
            Public Key Algorithm: rsaEncryption
                Public-Key: (2048 bit)
                Modulus:
                    00:b4:18:84:ce:37:30:e9:fa:62:3e:d2:8c:c3:5e:
                    e4:29:a9:e1:b7:00:b1:6b:d7:9a:6f:2c:4d:3c:43:
                    82:61:be:5c:1c:38:66:55:de:f4:ad:0d:d5:0c:da:
                    0c:9f:a8:db:dd:4d:ff:7b:90:72:40:ae:db:6d:6b:
                    e7:b3:87:58:c0:ca:13:60:3a:8c:a7:28:d0:fa:87:
                    94:b1:68:3c:da:9f:0c:8d:eb:cb:13:9e:44:86:fd:
                    f9:31:a8:ff:53:c8:67:ff:6c:40:00:e5:ec:5a:44:
                    c1:f6:aa:0e:8d:1a:a2:e3:84:20:30:4c:2e:9b:7e:
                    c8:14:e3:20:10:b0:c5:2e:a4:0f:76:67:a1:cd:0c:
                    15:ff:bf:78:ee:1f:0f:f0:58:5a:16:4f:a7:77:ea:
                    c9:46:cd:29:bb:03:7e:0e:86:a5:da:47:54:eb:6f:
                    4b:c8:e4:7c:1c:d4:16:9f:9b:b9:ec:d3:2e:00:1f:
                    89:5c:32:b9:13:bb:78:ab:32:a4:73:0e:d3:f6:52:
                    05:15:6f:f8:43:62:4e:ac:d0:c6:10:ab:88:ee:45:
                    2f:4e:d2:82:cd:ef:66:40:3c:ef:ee:2c:a0:92:77:
                    29:f9:c8:0a:dd:d2:1b:2c:b5:77:69:05:7a:ec:4f:
                    69:c8:b0:69:10:e8:39:f2:e6:88:06:b8:40:9f:3a:
                    56:c3
                Exponent: 65537 (0x10001)
        X509v3 extensions:
            X509v3 Subject Key Identifier: 
                B0:E7:6A:F4:C1:E8:66:0D:45:BD:C9:BE:94:62:91:FC:45:50:FA:1C
            X509v3 Authority Key Identifier: 
                keyid:9C:9B:00:D8:9C:8F:D3:67:72:18:B9:5A:DC:88:22:CE:36:6B:E3:4E
                DirName:/C=US/ST=California/L=Menlo Park/O=ONF/OU=Testing Only/CN=CORD Test Root CA
                serial:C5:68:C3:1D:B0:47:C6:3E

            X509v3 Basic Constraints: 
                CA:FALSE
            X509v3 Key Usage: critical
                Digital Signature, Key Encipherment
            X509v3 Extended Key Usage: 
                TLS Web Server Authentication
            X509v3 Subject Alternative Name: 
                DNS:xos-core, DNS:xos-core.default, DNS:xos-core.default.svc.cluster.local
    Signature Algorithm: sha256WithRSAEncryption
         5e:c1:71:49:f1:75:e7:93:53:c1:f3:e1:4d:b1:f9:17:88:76:
         58:eb:cc:de:49:ca:18:80:f6:eb:9d:f1:2f:e7:87:84:3c:2f:
         fc:3a:d3:be:24:63:7e:9e:4c:57:c3:17:7d:69:6e:ba:62:ec:
         53:9c:ac:2f:5c:6d:a6:33:94:ff:76:bd:fb:79:25:cb:9f:3a:
         7a:46:b4:d0:9e:b7:bb:ab:1f:5f:c3:63:4f:94:f2:a8:ff:42:
         8b:1f:db:81:d8:a4:5b:60:4d:2a:31:cc:bd:e1:17:f4:d0:89:
         fc:63:18:ac:5c:3d:fd:66:0f:a4:d0:b6:3a:f3:59:58:64:b2:
         20:7a:15:90:8e:e2:c7:61:98:26:87:52:87:c6:75:69:d2:09:
         43:52:8d:de:74:a2:c3:b0:76:b1:d2:21:52:20:e6:e6:cd:5d:
         ac:0c:f9:db:6a:5d:39:7f:fb:ab:b4:9b:14:f6:b2:e5:f3:c5:
         16:41:f3:46:b6:02:3c:13:74:f7:25:c7:e1:49:d4:bd:3e:44:
         1d:f0:29:4a:d9:d3:ee:84:a8:9b:52:6e:d9:8e:87:7b:9f:ce:
         6d:39:03:0b:2d:8c:40:46:b7:00:01:27:aa:72:d6:e9:e2:96:
         93:ab:a3:55:b8:db:58:2b:2c:51:9f:48:fc:5d:83:97:36:c1:
         4e:9b:c2:ce
-----BEGIN CERTIFICATE-----
MIIEsDCCA5igAwIBAgICEAAwDQYJKoZIhvcNAQELBQAweDELMAkGA1UEBhMCVVMx
EzARBgNVBAgMCkNhbGlmb3JuaWExEzARBgNVBAcMCk1lbmxvIFBhcmsxDDAKBgNV
BAoMA09ORjEVMBMGA1UECwwMVGVzdGluZyBPbmx5MRowGAYDVQQDDBFDT1JEIFRl
c3QgUm9vdCBDQTAeFw0xOTEyMTYyMDE0MDhaFw0yMDEyMTYyMDE0MDhaMG8xCzAJ
BgNVBAYTAlVTMRMwEQYDVQQIDApDYWxpZm9ybmlhMRMwEQYDVQQHDApNZW5sbyBQ
YXJrMQwwCgYDVQQKDANPTkYxFTATBgNVBAsMDFRlc3RpbmcgT25seTERMA8GA1UE
AwwIeG9zLWNvcmUwggEiMA0GCSqGSIb3DQEBAQUAA4IBDwAwggEKAoIBAQC0GITO
NzDp+mI+0ozDXuQpqeG3ALFr15pvLE08Q4JhvlwcOGZV3vStDdUM2gyfqNvdTf97
kHJArttta+ezh1jAyhNgOoynKND6h5SxaDzanwyN68sTnkSG/fkxqP9TyGf/bEAA
5exaRMH2qg6NGqLjhCAwTC6bfsgU4yAQsMUupA92Z6HNDBX/v3juHw/wWFoWT6d3
6slGzSm7A34OhqXaR1Trb0vI5Hwc1Bafm7ns0y4AH4lcMrkTu3irMqRzDtP2UgUV
b/hDYk6s0MYQq4juRS9O0oLN72ZAPO/uLKCSdyn5yArd0hsstXdpBXrsT2nIsGkQ
6Dny5ogGuECfOlbDAgMBAAGjggFLMIIBRzAdBgNVHQ4EFgQUsOdq9MHoZg1Fvcm+
lGKR/EVQ+hwwgaoGA1UdIwSBojCBn4AUnJsA2JyP02dyGLla3IgizjZr406hfKR6
MHgxCzAJBgNVBAYTAlVTMRMwEQYDVQQIDApDYWxpZm9ybmlhMRMwEQYDVQQHDApN
ZW5sbyBQYXJrMQwwCgYDVQQKDANPTkYxFTATBgNVBAsMDFRlc3RpbmcgT25seTEa
MBgGA1UEAwwRQ09SRCBUZXN0IFJvb3QgQ0GCCQDFaMMdsEfGPjAJBgNVHRMEAjAA
MA4GA1UdDwEB/wQEAwIFoDATBgNVHSUEDDAKBggrBgEFBQcDATBJBgNVHREEQjBA
ggh4b3MtY29yZYIQeG9zLWNvcmUuZGVmYXVsdIIieG9zLWNvcmUuZGVmYXVsdC5z
dmMuY2x1c3Rlci5sb2NhbDANBgkqhkiG9w0BAQsFAAOCAQEAXsFxSfF155NTwfPh
TbH5F4h2WOvM3knKGID2653xL+eHhDwv/DrTviRjfp5MV8MXfWluumLsU5ysL1xt
pjOU/3a9+3kly586eka00J63u6sfX8NjT5TyqP9Cix/bgdikW2BNKjHMveEX9NCJ
/GMYrFw9/WYPpNC2OvNZWGSyIHoVkI7ix2GYJodSh8Z1adIJQ1KN3nSiw7B2sdIh
UiDm5s1drAz522pdOX/7q7SbFPay5fPFFkHzRrYCPBN09yXH4UnUvT5EHfApStnT
7oSom1Ju2Y6He5/ObTkDCy2MQEa3AAEnqnLW6eKWk6ujVbjbWCssUZ9I/F2DlzbB
TpvCzg==
-----END CERTIFICATE-----
